target datalayout = "e-m:e-p270:32:32-p271:32:32-p272:64:64-i64:64-i128:128-f80:128-n8:16:32:64-S128"
target triple = "x86_64-pc-linux-gnu"

%struct.except_stacknode = type { ptr, i32, %union.anon }
%union.anon = type { ptr }
%struct.except_cleanup = type { ptr, ptr }

@table_header = internal global ptr null, align 8

; Function Attrs: null_pointer_is_valid sspstrong uwtable
define internal i32 @dissect_cose_msg_header_map(ptr noundef %0, ptr noundef %1, ptr noundef %2, ptr noundef %3) #0 {
  %5 = alloca ptr, align 8
  %6 = alloca ptr, align 8
  %7 = alloca ptr, align 8
  %8 = alloca ptr, align 8
  %9 = alloca i32, align 4
  %10 = alloca ptr, align 8
  %11 = alloca %struct.except_stacknode, align 8
  %12 = alloca %struct.except_cleanup, align 8
  store ptr %0, ptr %5, align 8
  store ptr %1, ptr %6, align 8
  store ptr %2, ptr %7, align 8
  store ptr %3, ptr %8, align 8
  call void @llvm.lifetime.start.p0(i64 4, ptr %9) #12
  store i32 0, ptr %9, align 4
  call void @llvm.lifetime.start.p0(i64 8, ptr %10) #12
  %13 = call ptr @g_variant_new_int64(i64 noundef 1)
  store ptr %13, ptr %10, align 8
  call void @llvm.lifetime.start.p0(i64 24, ptr %11) #12
  call void @llvm.lifetime.start.p0(i64 16, ptr %12) #12
  %14 = load ptr, ptr %10, align 8
  call void @except_setup_clean(ptr noundef %11, ptr noundef %12, ptr noundef @g_variant_cleanup, ptr noundef %14)
  %15 = load ptr, ptr @table_header, align 8
  %16 = load ptr, ptr %5, align 8
  %17 = load ptr, ptr %6, align 8
  %18 = load ptr, ptr %7, align 8
  %19 = load ptr, ptr %10, align 8
  call void @dissect_header_map(ptr noundef %15, ptr noundef %16, ptr noundef %17, ptr noundef %18, ptr noundef %9, ptr noundef %19)
  %20 = call ptr @except_pop()
  %21 = getelementptr inbounds nuw %struct.except_cleanup, ptr %12, i32 0, i32 0
  %22 = load ptr, ptr %21, align 8
  %23 = getelementptr inbounds nuw %struct.except_cleanup, ptr %12, i32 0, i32 1
  %24 = load ptr, ptr %23, align 8
  call void %22(ptr noundef %24)
  call void @llvm.lifetime.end.p0(i64 16, ptr %12) #12
  call void @llvm.lifetime.end.p0(i64 24, ptr %11) #12
  %25 = load i32, ptr %9, align 4
  call void @llvm.lifetime.end.p0(i64 8, ptr %10) #12
  call void @llvm.lifetime.end.p0(i64 4, ptr %9) #12
  ret i32 %25
}