; Function Attrs: null_pointer_is_valid sspstrong uwtable
define internal i32 @dissect_cose_msg_header_map(ptr noundef %0, ptr noundef %1, ptr noundef %2, ptr readnone captures(none) %3) #0 {
  %5 = alloca i32, align 4
  %6 = alloca %struct.except_stacknode, align 8
  %7 = alloca %struct.except_cleanup, align 8
  call void @llvm.lifetime.start.p0(i64 4, ptr nonnull %5) #8
  store i32 0, ptr %5, align 4
  %8 = tail call ptr @g_variant_new_int64(i64 noundef 1)
  call void @llvm.lifetime.start.p0(i64 24, ptr nonnull %6) #8
  call void @llvm.lifetime.start.p0(i64 16, ptr nonnull %7) #8
  call void @except_setup_clean(ptr noundef nonnull %6, ptr noundef nonnull %7, ptr noundef nonnull @g_variant_cleanup, ptr noundef %8)
  %9 = load ptr, ptr @table_header, align 8
  call fastcc void @dissect_header_map(ptr noundef %9, ptr noundef %0, ptr noundef %1, ptr noundef %2, ptr noundef nonnull %5, ptr noundef %8)
  %10 = call ptr @except_pop()
  %11 = load ptr, ptr %7, align 8
  %12 = getelementptr inbounds nuw i8, ptr %7, i64 8
  %13 = load ptr, ptr %12, align 8
  call void %11(ptr noundef %13)
  call void @llvm.lifetime.end.p0(i64 16, ptr nonnull %7) #8
  call void @llvm.lifetime.end.p0(i64 24, ptr nonnull %6) #8
  %14 = load i32, ptr %5, align 4
  call void @llvm.lifetime.end.p0(i64 4, ptr nonnull %5) #8
  ret i32 %14
}